; Function Attrs: mustprogress uwtable
define hidden void @_ZN4cvc58internal5proof27AlfProofPostprocessCallbackC2EPNS0_16ProofNodeManagerERNS1_16AlfNodeConverterE(ptr noundef nonnull align 8 dereferenceable(80) %this, ptr noundef %pnm, ptr noundef nonnull align 8 dereferenceable(448) %ltp) unnamed_addr #3 align 2 personality ptr @__gxx_personality_v0 {
entry:
  tail call void @_ZN4cvc58internal24ProofNodeUpdaterCallbackC2Ev(ptr noundef nonnull align 8 dereferenceable(8) %this)
  store ptr getelementptr inbounds ({ [8 x ptr] }, ptr @_ZTVN4cvc58internal5proof27AlfProofPostprocessCallbackE, i64 0, i32 0, i64 2), ptr %this, align 8
  %d_pnm = getelementptr inbounds i8, ptr %this, i64 8
  store ptr %pnm, ptr %d_pnm, align 8
  %d_tproc = getelementptr inbounds i8, ptr %this, i64 16
  store ptr %ltp, ptr %d_tproc, align 8
  %d_numIgnoredScopes = getelementptr inbounds i8, ptr %this, i64 24
  store i8 0, ptr %d_numIgnoredScopes, align 8
  %0 = getelementptr inbounds i8, ptr %this, i64 40
  store i32 0, ptr %0, align 8
  %_M_parent.i.i.i.i.i = getelementptr inbounds i8, ptr %this, i64 48
  store ptr null, ptr %_M_parent.i.i.i.i.i, align 8
  %_M_left.i.i.i.i.i = getelementptr inbounds i8, ptr %this, i64 56
  store ptr %0, ptr %_M_left.i.i.i.i.i, align 8
  %_M_right.i.i.i.i.i = getelementptr inbounds i8, ptr %this, i64 64
  store ptr %0, ptr %_M_right.i.i.i.i.i, align 8
  %_M_node_count.i.i.i.i.i = getelementptr inbounds i8, ptr %this, i64 72
  store i64 0, ptr %_M_node_count.i.i.i.i.i, align 8
  ret void
}